target datalayout = "e-m:e-p270:32:32-p271:32:32-p272:64:64-i64:64-i128:128-f80:128-n8:16:32:64-S128"
target triple = "x86_64-pc-linux-gnu"

@H5T_init_g = external global i8, align 1
@H5_libterm_g = external global i8, align 1
@.str = private unnamed_addr constant [100 x i8] c"generated/home/dtcxzyw/WorkSpace/Projects/compilers/llvm-opt-benchmark/bench/hdf5/hdf5/src/H5Tref.c\00", align 1
@H5E_BADTYPE_g = external global i64, align 8
@H5E_ARGS_g = external global i64, align 8
@.str.4 = private unnamed_addr constant [19 x i8] c"invalid VOL object\00", align 1
@__func__.H5T__ref_dsetreg_disk_isnull = private unnamed_addr constant [29 x i8] c"H5T__ref_dsetreg_disk_isnull\00", align 1

; Function Attrs: nounwind uwtable
define internal i32 @H5T__ref_dsetreg_disk_isnull(ptr noundef %0, ptr noundef %1, ptr noundef %2) #0 {
  %4 = alloca ptr, align 8
  %5 = alloca ptr, align 8
  %6 = alloca ptr, align 8
  %7 = alloca ptr, align 8
  %8 = alloca ptr, align 8
  %9 = alloca i64, align 8
  %10 = alloca i32, align 4
  %11 = alloca i8, align 1
  store ptr %0, ptr %4, align 8, !tbaa !8
  store ptr %1, ptr %5, align 8, !tbaa !39
  store ptr %2, ptr %6, align 8, !tbaa !40
  call void @llvm.lifetime.start.p0(i64 8, ptr %7) #8
  call void @llvm.lifetime.start.p0(i64 8, ptr %8) #8
  %12 = load ptr, ptr %5, align 8, !tbaa !39
  store ptr %12, ptr %8, align 8, !tbaa !44
  call void @llvm.lifetime.start.p0(i64 8, ptr %9) #8
  call void @llvm.lifetime.start.p0(i64 4, ptr %10) #8
  store i32 0, ptr %10, align 4, !tbaa !10
  call void @llvm.lifetime.start.p0(i64 1, ptr %11) #8
  store i8 0, ptr %11, align 1, !tbaa !12
  %13 = load i8, ptr @H5T_init_g, align 1, !tbaa !12, !range !14, !noundef !15
  %14 = trunc i8 %13 to i1
  br i1 %14, label %19, label %15

15:                                               ; preds = %3
  %16 = load i8, ptr @H5_libterm_g, align 1, !tbaa !12, !range !14, !noundef !15
  %17 = trunc i8 %16 to i1
  %18 = xor i1 %17, true
  br label %19

19:                                               ; preds = %15, %3
  %20 = phi i1 [ true, %3 ], [ %18, %15 ]
  %21 = xor i1 %20, true
  %22 = xor i1 %21, true
  %23 = zext i1 %22 to i32
  %24 = sext i32 %23 to i64
  %25 = call i64 @llvm.expect.i64(i64 %24, i64 1)
  %26 = icmp ne i64 %25, 0
  br i1 %26, label %27, label %62

27:                                               ; preds = %19
  br label %28

28:                                               ; preds = %27
  br label %29

29:                                               ; preds = %28
  br label %30

30:                                               ; preds = %29
  %31 = load ptr, ptr %4, align 8, !tbaa !8
  %32 = call ptr @H5VL_object_data(ptr noundef %31)
  store ptr %32, ptr %7, align 8, !tbaa !30
  %33 = icmp eq ptr null, %32
  br i1 %33, label %34, label %53

34:                                               ; preds = %30
  br label %35

35:                                               ; preds = %34
  br label %36

36:                                               ; preds = %35
  br label %37

37:                                               ; preds = %36
  %38 = load i64, ptr @H5E_ARGS_g, align 8, !tbaa !28
  %39 = load i64, ptr @H5E_BADTYPE_g, align 8, !tbaa !28
  %40 = call i32 (ptr, ptr, i32, i64, i64, ptr, ...) @H5E_printf_stack(ptr noundef @.str, ptr noundef @__func__.H5T__ref_dsetreg_disk_isnull, i32 noundef 1215, i64 noundef %38, i64 noundef %39, ptr noundef @.str.4)
  br label %41

41:                                               ; preds = %37
  br label %42

42:                                               ; preds = %41
  store i8 1, ptr %11, align 1, !tbaa !12
  %43 = load i8, ptr %11, align 1, !tbaa !12, !range !14, !noundef !15
  %44 = trunc i8 %43 to i1
  %45 = zext i1 %44 to i8
  store i8 %45, ptr %11, align 1, !tbaa !12
  br label %46

46:                                               ; preds = %42
  br label %47

47:                                               ; preds = %46
  br label %48

48:                                               ; preds = %47
  store i32 -1, ptr %10, align 4, !tbaa !10
  br label %61

49:                                               ; No predecessors!
  br label %50

50:                                               ; preds = %49
  br label %51

51:                                               ; preds = %50
  br label %52

52:                                               ; preds = %51
  br label %53

53:                                               ; preds = %52, %30
  %54 = load ptr, ptr %7, align 8, !tbaa !30
  call void @H5F_addr_decode(ptr noundef %54, ptr noundef %8, ptr noundef %9)
  %55 = load i64, ptr %9, align 8, !tbaa !28
  %56 = icmp eq i64 %55, 0
  %57 = select i1 %56, i32 1, i32 0
  %58 = icmp ne i32 %57, 0
  %59 = load ptr, ptr %6, align 8, !tbaa !40
  %60 = zext i1 %58 to i8
  store i8 %60, ptr %59, align 1, !tbaa !12
  br label %61

61:                                               ; preds = %53, %48
  br label %62

62:                                               ; preds = %61, %19
  %63 = load i32, ptr %10, align 4, !tbaa !10
  call void @llvm.lifetime.end.p0(i64 1, ptr %11) #8
  call void @llvm.lifetime.end.p0(i64 4, ptr %10) #8
  call void @llvm.lifetime.end.p0(i64 8, ptr %9) #8
  call void @llvm.lifetime.end.p0(i64 8, ptr %8) #8
  call void @llvm.lifetime.end.p0(i64 8, ptr %7) #8
  ret i32 %63
}